target datalayout = "e-m:e-p270:32:32-p271:32:32-p272:64:64-i64:64-i128:128-f80:128-n8:16:32:64-S128"
target triple = "x86_64-pc-linux-gnu"

; Function Attrs: nounwind uwtable
define i32 @lv_sqrt32(i32 noundef %0) #0 {
  %2 = alloca i32, align 4
  %3 = alloca i32, align 4
  %4 = alloca i32, align 4
  %5 = alloca i32, align 4
  store i32 %0, ptr %3, align 4, !tbaa !7
  call void @llvm.lifetime.start.p0(i64 4, ptr %4) #2
  %6 = load i32, ptr %3, align 4, !tbaa !7
  %7 = icmp uge i32 %6, 65536
  br i1 %7, label %8, label %105

8:                                                ; preds = %1
  %9 = load i32, ptr %3, align 4, !tbaa !7
  %10 = icmp uge i32 %9, 16777216
  br i1 %10, label %11, label %60

11:                                               ; preds = %8
  %12 = load i32, ptr %3, align 4, !tbaa !7
  %13 = icmp uge i32 %12, 268435456
  br i1 %13, label %14, label %39

14:                                               ; preds = %11
  %15 = load i32, ptr %3, align 4, !tbaa !7
  %16 = icmp uge i32 %15, 1073741824
  br i1 %16, label %17, label %30

17:                                               ; preds = %14
  %18 = load i32, ptr %3, align 4, !tbaa !7
  %19 = zext i32 %18 to i64
  %20 = icmp uge i64 %19, 4294836225
  br i1 %20, label %21, label %22

21:                                               ; preds = %17
  store i32 65535, ptr %2, align 4
  store i32 1, ptr %5, align 4
  br label %190

22:                                               ; preds = %17
  %23 = load i32, ptr %3, align 4, !tbaa !7
  %24 = lshr i32 %23, 24
  %25 = zext i32 %24 to i64
  %26 = getelementptr inbounds nuw [256 x i8], ptr @lv_sqrt32.sqq_table, i64 0, i64 %25
  %27 = load i8, ptr %26, align 1, !tbaa !20
  %28 = zext i8 %27 to i32
  %29 = shl i32 %28, 8
  store i32 %29, ptr %4, align 4, !tbaa !7
  br label %38

30:                                               ; preds = %14
  %31 = load i32, ptr %3, align 4, !tbaa !7
  %32 = lshr i32 %31, 22
  %33 = zext i32 %32 to i64
  %34 = getelementptr inbounds nuw [256 x i8], ptr @lv_sqrt32.sqq_table, i64 0, i64 %33
  %35 = load i8, ptr %34, align 1, !tbaa !20
  %36 = zext i8 %35 to i32
  %37 = shl i32 %36, 7
  store i32 %37, ptr %4, align 4, !tbaa !7
  br label %38

38:                                               ; preds = %30, %22
  br label %59

39:                                               ; preds = %11
  %40 = load i32, ptr %3, align 4, !tbaa !7
  %41 = icmp uge i32 %40, 67108864
  br i1 %41, label %42, label %50

42:                                               ; preds = %39
  %43 = load i32, ptr %3, align 4, !tbaa !7
  %44 = lshr i32 %43, 20
  %45 = zext i32 %44 to i64
  %46 = getelementptr inbounds nuw [256 x i8], ptr @lv_sqrt32.sqq_table, i64 0, i64 %45
  %47 = load i8, ptr %46, align 1, !tbaa !20
  %48 = zext i8 %47 to i32
  %49 = shl i32 %48, 6
  store i32 %49, ptr %4, align 4, !tbaa !7
  br label %58

50:                                               ; preds = %39
  %51 = load i32, ptr %3, align 4, !tbaa !7
  %52 = lshr i32 %51, 18
  %53 = zext i32 %52 to i64
  %54 = getelementptr inbounds nuw [256 x i8], ptr @lv_sqrt32.sqq_table, i64 0, i64 %53
  %55 = load i8, ptr %54, align 1, !tbaa !20
  %56 = zext i8 %55 to i32
  %57 = shl i32 %56, 5
  store i32 %57, ptr %4, align 4, !tbaa !7
  br label %58

58:                                               ; preds = %50, %42
  br label %59

59:                                               ; preds = %58, %38
  br label %104

60:                                               ; preds = %8
  %61 = load i32, ptr %3, align 4, !tbaa !7
  %62 = icmp uge i32 %61, 1048576
  br i1 %62, label %63, label %83

63:                                               ; preds = %60
  %64 = load i32, ptr %3, align 4, !tbaa !7
  %65 = icmp uge i32 %64, 4194304
  br i1 %65, label %66, label %74

66:                                               ; preds = %63
  %67 = load i32, ptr %3, align 4, !tbaa !7
  %68 = lshr i32 %67, 16
  %69 = zext i32 %68 to i64
  %70 = getelementptr inbounds nuw [256 x i8], ptr @lv_sqrt32.sqq_table, i64 0, i64 %69
  %71 = load i8, ptr %70, align 1, !tbaa !20
  %72 = zext i8 %71 to i32
  %73 = shl i32 %72, 4
  store i32 %73, ptr %4, align 4, !tbaa !7
  br label %82

74:                                               ; preds = %63
  %75 = load i32, ptr %3, align 4, !tbaa !7
  %76 = lshr i32 %75, 14
  %77 = zext i32 %76 to i64
  %78 = getelementptr inbounds nuw [256 x i8], ptr @lv_sqrt32.sqq_table, i64 0, i64 %77
  %79 = load i8, ptr %78, align 1, !tbaa !20
  %80 = zext i8 %79 to i32
  %81 = shl i32 %80, 3
  store i32 %81, ptr %4, align 4, !tbaa !7
  br label %82

82:                                               ; preds = %74, %66
  br label %103

83:                                               ; preds = %60
  %84 = load i32, ptr %3, align 4, !tbaa !7
  %85 = icmp uge i32 %84, 262144
  br i1 %85, label %86, label %94

86:                                               ; preds = %83
  %87 = load i32, ptr %3, align 4, !tbaa !7
  %88 = lshr i32 %87, 12
  %89 = zext i32 %88 to i64
  %90 = getelementptr inbounds nuw [256 x i8], ptr @lv_sqrt32.sqq_table, i64 0, i64 %89
  %91 = load i8, ptr %90, align 1, !tbaa !20
  %92 = zext i8 %91 to i32
  %93 = shl i32 %92, 2
  store i32 %93, ptr %4, align 4, !tbaa !7
  br label %102

94:                                               ; preds = %83
  %95 = load i32, ptr %3, align 4, !tbaa !7
  %96 = lshr i32 %95, 10
  %97 = zext i32 %96 to i64
  %98 = getelementptr inbounds nuw [256 x i8], ptr @lv_sqrt32.sqq_table, i64 0, i64 %97
  %99 = load i8, ptr %98, align 1, !tbaa !20
  %100 = zext i8 %99 to i32
  %101 = shl i32 %100, 1
  store i32 %101, ptr %4, align 4, !tbaa !7
  br label %102

102:                                              ; preds = %94, %86
  br label %103

103:                                              ; preds = %102, %82
  br label %171

104:                                              ; preds = %59
  br label %163

105:                                              ; preds = %1
  %106 = load i32, ptr %3, align 4, !tbaa !7
  %107 = icmp uge i32 %106, 256
  br i1 %107, label %108, label %156

108:                                              ; preds = %105
  %109 = load i32, ptr %3, align 4, !tbaa !7
  %110 = icmp uge i32 %109, 4096
  br i1 %110, label %111, label %133

111:                                              ; preds = %108
  %112 = load i32, ptr %3, align 4, !tbaa !7
  %113 = icmp uge i32 %112, 16384
  br i1 %113, label %114, label %123

114:                                              ; preds = %111
  %115 = load i32, ptr %3, align 4, !tbaa !7
  %116 = lshr i32 %115, 8
  %117 = zext i32 %116 to i64
  %118 = getelementptr inbounds nuw [256 x i8], ptr @lv_sqrt32.sqq_table, i64 0, i64 %117
  %119 = load i8, ptr %118, align 1, !tbaa !20
  %120 = zext i8 %119 to i32
  %121 = ashr i32 %120, 0
  %122 = add nsw i32 %121, 1
  store i32 %122, ptr %4, align 4, !tbaa !7
  br label %132

123:                                              ; preds = %111
  %124 = load i32, ptr %3, align 4, !tbaa !7
  %125 = lshr i32 %124, 6
  %126 = zext i32 %125 to i64
  %127 = getelementptr inbounds nuw [256 x i8], ptr @lv_sqrt32.sqq_table, i64 0, i64 %126
  %128 = load i8, ptr %127, align 1, !tbaa !20
  %129 = zext i8 %128 to i32
  %130 = ashr i32 %129, 1
  %131 = add nsw i32 %130, 1
  store i32 %131, ptr %4, align 4, !tbaa !7
  br label %132

132:                                              ; preds = %123, %114
  br label %155

133:                                              ; preds = %108
  %134 = load i32, ptr %3, align 4, !tbaa !7
  %135 = icmp uge i32 %134, 1024
  br i1 %135, label %136, label %145

136:                                              ; preds = %133
  %137 = load i32, ptr %3, align 4, !tbaa !7
  %138 = lshr i32 %137, 4
  %139 = zext i32 %138 to i64
  %140 = getelementptr inbounds nuw [256 x i8], ptr @lv_sqrt32.sqq_table, i64 0, i64 %139
  %141 = load i8, ptr %140, align 1, !tbaa !20
  %142 = zext i8 %141 to i32
  %143 = ashr i32 %142, 2
  %144 = add nsw i32 %143, 1
  store i32 %144, ptr %4, align 4, !tbaa !7
  br label %154

145:                                              ; preds = %133
  %146 = load i32, ptr %3, align 4, !tbaa !7
  %147 = lshr i32 %146, 2
  %148 = zext i32 %147 to i64
  %149 = getelementptr inbounds nuw [256 x i8], ptr @lv_sqrt32.sqq_table, i64 0, i64 %148
  %150 = load i8, ptr %149, align 1, !tbaa !20
  %151 = zext i8 %150 to i32
  %152 = ashr i32 %151, 3
  %153 = add nsw i32 %152, 1
  store i32 %153, ptr %4, align 4, !tbaa !7
  br label %154

154:                                              ; preds = %145, %136
  br label %155

155:                                              ; preds = %154, %132
  br label %179

156:                                              ; preds = %105
  %157 = load i32, ptr %3, align 4, !tbaa !7
  %158 = zext i32 %157 to i64
  %159 = getelementptr inbounds nuw [256 x i8], ptr @lv_sqrt32.sqq_table, i64 0, i64 %158
  %160 = load i8, ptr %159, align 1, !tbaa !20
  %161 = zext i8 %160 to i32
  %162 = ashr i32 %161, 4
  store i32 %162, ptr %2, align 4
  store i32 1, ptr %5, align 4
  br label %190

163:                                              ; preds = %104
  %164 = load i32, ptr %4, align 4, !tbaa !7
  %165 = add nsw i32 %164, 1
  %166 = load i32, ptr %3, align 4, !tbaa !7
  %167 = load i32, ptr %4, align 4, !tbaa !7
  %168 = udiv i32 %166, %167
  %169 = add i32 %165, %168
  %170 = udiv i32 %169, 2
  store i32 %170, ptr %4, align 4, !tbaa !7
  br label %171

171:                                              ; preds = %163, %103
  %172 = load i32, ptr %4, align 4, !tbaa !7
  %173 = add nsw i32 %172, 1
  %174 = load i32, ptr %3, align 4, !tbaa !7
  %175 = load i32, ptr %4, align 4, !tbaa !7
  %176 = udiv i32 %174, %175
  %177 = add i32 %173, %176
  %178 = udiv i32 %177, 2
  store i32 %178, ptr %4, align 4, !tbaa !7
  br label %179

179:                                              ; preds = %171, %155
  %180 = load i32, ptr %4, align 4, !tbaa !7
  %181 = load i32, ptr %4, align 4, !tbaa !7
  %182 = mul nsw i32 %180, %181
  %183 = load i32, ptr %3, align 4, !tbaa !7
  %184 = icmp sgt i32 %182, %183
  br i1 %184, label %185, label %188

185:                                              ; preds = %179
  %186 = load i32, ptr %4, align 4, !tbaa !7
  %187 = add nsw i32 %186, -1
  store i32 %187, ptr %4, align 4, !tbaa !7
  br label %188

188:                                              ; preds = %185, %179
  %189 = load i32, ptr %4, align 4, !tbaa !7
  store i32 %189, ptr %2, align 4
  store i32 1, ptr %5, align 4
  br label %190

190:                                              ; preds = %188, %156, %21
  call void @llvm.lifetime.end.p0(i64 4, ptr %4) #2
  %191 = load i32, ptr %2, align 4
  ret i32 %191
}