; Function Attrs: mustprogress nofree norecurse nosync nounwind willreturn memory(none) uwtable
define range(i32 -1, -2147483648) i32 @lv_sqrt32(i32 noundef %0) local_unnamed_addr #0 {
  %2 = icmp ugt i32 %0, 65535
  br i1 %2, label %3, label %47

3:                                                ; preds = %1
  %4 = icmp ugt i32 %0, 16777215
  br i1 %4, label %5, label %13

5:                                                ; preds = %3
  %6 = icmp ugt i32 %0, 268435455
  br i1 %6, label %7, label %11

7:                                                ; preds = %5
  %8 = icmp ugt i32 %0, 1073741823
  br i1 %8, label %9, label %89

9:                                                ; preds = %7
  %10 = icmp ugt i32 %0, -131072
  br i1 %10, label %109, label %89

11:                                               ; preds = %5
  %12 = icmp ugt i32 %0, 67108863
  %. = select i1 %12, i32 20, i32 18
  %.46 = select i1 %12, i32 6, i32 5
  br label %89

13:                                               ; preds = %3
  %14 = icmp ugt i32 %0, 1048575
  br i1 %14, label %15, label %31

15:                                               ; preds = %13
  %16 = icmp ugt i32 %0, 4194303
  br i1 %16, label %17, label %24

17:                                               ; preds = %15
  %18 = lshr i32 %0, 16
  %19 = zext nneg i32 %18 to i64
  %20 = getelementptr inbounds nuw [256 x i8], ptr @lv_sqrt32.sqq_table, i64 0, i64 %19
  %21 = load i8, ptr %20, align 1, !tbaa !14
  %22 = zext i8 %21 to i32
  %23 = shl nuw nsw i32 %22, 4
  br label %100

24:                                               ; preds = %15
  %25 = lshr i32 %0, 14
  %26 = zext nneg i32 %25 to i64
  %27 = getelementptr inbounds nuw [256 x i8], ptr @lv_sqrt32.sqq_table, i64 0, i64 %26
  %28 = load i8, ptr %27, align 1, !tbaa !14
  %29 = zext i8 %28 to i32
  %30 = shl nuw nsw i32 %29, 3
  br label %100

31:                                               ; preds = %13
  %32 = icmp ugt i32 %0, 262143
  br i1 %32, label %33, label %40

33:                                               ; preds = %31
  %34 = lshr i32 %0, 12
  %35 = zext nneg i32 %34 to i64
  %36 = getelementptr inbounds nuw [256 x i8], ptr @lv_sqrt32.sqq_table, i64 0, i64 %35
  %37 = load i8, ptr %36, align 1, !tbaa !14
  %38 = zext i8 %37 to i32
  %39 = shl nuw nsw i32 %38, 2
  br label %100

40:                                               ; preds = %31
  %41 = lshr i32 %0, 10
  %42 = zext nneg i32 %41 to i64
  %43 = getelementptr inbounds nuw [256 x i8], ptr @lv_sqrt32.sqq_table, i64 0, i64 %42
  %44 = load i8, ptr %43, align 1, !tbaa !14
  %45 = zext i8 %44 to i32
  %46 = shl nuw nsw i32 %45, 1
  br label %100

47:                                               ; preds = %1
  %48 = icmp ugt i32 %0, 255
  br i1 %48, label %49, label %83

49:                                               ; preds = %47
  %50 = icmp ugt i32 %0, 4095
  br i1 %50, label %51, label %67

51:                                               ; preds = %49
  %52 = icmp ugt i32 %0, 16383
  br i1 %52, label %53, label %60

53:                                               ; preds = %51
  %54 = lshr i32 %0, 8
  %55 = zext nneg i32 %54 to i64
  %56 = getelementptr inbounds nuw [256 x i8], ptr @lv_sqrt32.sqq_table, i64 0, i64 %55
  %57 = load i8, ptr %56, align 1, !tbaa !14
  %58 = zext i8 %57 to i32
  %59 = add nuw nsw i32 %58, 1
  br label %105

60:                                               ; preds = %51
  %61 = lshr i32 %0, 6
  %62 = zext nneg i32 %61 to i64
  %63 = getelementptr inbounds nuw [256 x i8], ptr @lv_sqrt32.sqq_table, i64 0, i64 %62
  %64 = load i8, ptr %63, align 1, !tbaa !14
  %65 = lshr i8 %64, 1
  %narrow41 = add nuw i8 %65, 1
  %66 = zext i8 %narrow41 to i32
  br label %105

67:                                               ; preds = %49
  %68 = icmp ugt i32 %0, 1023
  br i1 %68, label %69, label %76

69:                                               ; preds = %67
  %70 = lshr i32 %0, 4
  %71 = zext nneg i32 %70 to i64
  %72 = getelementptr inbounds nuw [256 x i8], ptr @lv_sqrt32.sqq_table, i64 0, i64 %71
  %73 = load i8, ptr %72, align 1, !tbaa !14
  %74 = lshr i8 %73, 2
  %narrow40 = add nuw nsw i8 %74, 1
  %75 = zext nneg i8 %narrow40 to i32
  br label %105

76:                                               ; preds = %67
  %77 = lshr i32 %0, 2
  %78 = zext nneg i32 %77 to i64
  %79 = getelementptr inbounds nuw [256 x i8], ptr @lv_sqrt32.sqq_table, i64 0, i64 %78
  %80 = load i8, ptr %79, align 1, !tbaa !14
  %81 = lshr i8 %80, 3
  %narrow = add nuw nsw i8 %81, 1
  %82 = zext nneg i8 %narrow to i32
  br label %105

83:                                               ; preds = %47
  %84 = zext nneg i32 %0 to i64
  %85 = getelementptr inbounds nuw [256 x i8], ptr @lv_sqrt32.sqq_table, i64 0, i64 %84
  %86 = load i8, ptr %85, align 1, !tbaa !14
  %87 = lshr i8 %86, 4
  %88 = zext nneg i8 %87 to i32
  br label %109

89:                                               ; preds = %11, %7, %9
  %.sink45 = phi i32 [ 24, %9 ], [ 22, %7 ], [ %., %11 ]
  %.sink42 = phi i32 [ 8, %9 ], [ 7, %7 ], [ %.46, %11 ]
  %90 = lshr i32 %0, %.sink45
  %91 = zext nneg i32 %90 to i64
  %92 = getelementptr inbounds nuw [256 x i8], ptr @lv_sqrt32.sqq_table, i64 0, i64 %91
  %93 = load i8, ptr %92, align 1, !tbaa !14
  %94 = zext i8 %93 to i32
  %95 = shl nuw nsw i32 %94, %.sink42
  %96 = or disjoint i32 %95, 1
  %97 = udiv i32 %0, %95
  %98 = add i32 %96, %97
  %99 = lshr i32 %98, 1
  br label %100

100:                                              ; preds = %24, %17, %40, %33, %89
  %.0 = phi i32 [ %99, %89 ], [ %23, %17 ], [ %30, %24 ], [ %39, %33 ], [ %46, %40 ]
  %101 = add nuw nsw i32 %.0, 1
  %102 = udiv i32 %0, %.0
  %103 = add i32 %101, %102
  %104 = lshr i32 %103, 1
  br label %105

105:                                              ; preds = %60, %53, %76, %69, %100
  %.2 = phi i32 [ %104, %100 ], [ %59, %53 ], [ %66, %60 ], [ %75, %69 ], [ %82, %76 ]
  %106 = mul nsw i32 %.2, %.2
  %107 = icmp sgt i32 %106, %0
  %108 = sext i1 %107 to i32
  %spec.select = add nsw i32 %.2, %108
  br label %109

109:                                              ; preds = %9, %105, %83
  %.038 = phi i32 [ %spec.select, %105 ], [ %88, %83 ], [ 65535, %9 ]
  ret i32 %.038
}